target datalayout = "e-m:e-p270:32:32-p271:32:32-p272:64:64-i64:64-i128:128-f80:128-n8:16:32:64-S128"
target triple = "x86_64-pc-linux-gnu"

%struct.expert_field = type { i32, i32 }
%struct._e_guid_t = type { i32, i16, i16, [8 x i8] }
%struct.nstime_t = type { i64, i32 }
%struct._dcerpc_info = type { ptr, i32, i64, i8, i32, i32, i32, i32, i32, i32, i32, i32, i32, i32, ptr, ptr, ptr }
%struct._dcerpc_call_value = type { %struct._e_guid_t, i16, %struct._e_guid_t, i16, i32, %struct.nstime_t, i32, i32, ptr, ptr, ptr, i32 }

@hf_pn_io_number_of_tsn_domain_queue_config_entries = internal global i32 0, align 4
@hf_pn_io_tsn_domain_queue_config = internal global i32 0, align 4
@hf_pn_io_tsn_domain_queue_config_queue_id = internal global i32 0, align 4
@hf_pn_io_tsn_domain_queue_config_tci_pcp = internal global i32 0, align 4
@hf_pn_io_tsn_domain_queue_config_shaper = internal global i32 0, align 4
@hf_pn_io_tsn_domain_queue_config_preemption_mode = internal global i32 0, align 4
@hf_pn_io_tsn_domain_queue_config_unmask_time_offset = internal global i32 0, align 4
@hf_pn_io_tsn_domain_queue_config_mask_time_offset = internal global i32 0, align 4
@ett_pn_io_tsn_domain_queue_config = internal global i32 0, align 4
@ei_pn_io_block_version = internal global %struct.expert_field zeroinitializer, align 4
@.str.1317 = private unnamed_addr constant [41 x i8] c"Block version %u.%u not implemented yet!\00", align 1

; Function Attrs: nounwind uwtable
define internal i32 @dissect_TSNDomainQueueConfig_block(ptr noundef %0, i32 noundef %1, ptr noundef %2, ptr noundef %3, ptr noundef %4, ptr noundef %5, i8 noundef zeroext %6, i8 noundef zeroext %7) #0 {
  %9 = alloca i32, align 4
  %10 = alloca ptr, align 8
  %11 = alloca i32, align 4
  %12 = alloca ptr, align 8
  %13 = alloca ptr, align 8
  %14 = alloca ptr, align 8
  %15 = alloca ptr, align 8
  %16 = alloca i8, align 1
  %17 = alloca i8, align 1
  %18 = alloca i16, align 2
  %19 = alloca ptr, align 8
  %20 = alloca ptr, align 8
  %21 = alloca i64, align 8
  %22 = alloca %struct._dcerpc_info, align 8
  %23 = alloca %struct._dcerpc_call_value, align 8
  store ptr %0, ptr %10, align 8
  store i32 %1, ptr %11, align 4
  store ptr %2, ptr %12, align 8
  store ptr %3, ptr %13, align 8
  store ptr %4, ptr %14, align 8
  store ptr %5, ptr %15, align 8
  store i8 %6, ptr %16, align 1
  store i8 %7, ptr %17, align 1
  %24 = getelementptr inbounds %struct._dcerpc_info, ptr %22, i32 0, i32 14
  store ptr %23, ptr %24, align 8
  %25 = load i8, ptr %16, align 1
  %26 = zext i8 %25 to i32
  %27 = icmp ne i32 %26, 1
  br i1 %27, label %32, label %28

28:                                               ; preds = %8
  %29 = load i8, ptr %17, align 1
  %30 = zext i8 %29 to i32
  %31 = icmp ne i32 %30, 0
  br i1 %31, label %32, label %41

32:                                               ; preds = %28, %8
  %33 = load ptr, ptr %12, align 8
  %34 = load ptr, ptr %14, align 8
  %35 = load i8, ptr %16, align 1
  %36 = zext i8 %35 to i32
  %37 = load i8, ptr %17, align 1
  %38 = zext i8 %37 to i32
  %39 = call ptr (ptr, ptr, ptr, ptr, ...) @expert_add_info_format(ptr noundef %33, ptr noundef %34, ptr noundef @ei_pn_io_block_version, ptr noundef @.str.1317, i32 noundef %36, i32 noundef %38)
  %40 = load i32, ptr %11, align 4
  store i32 %40, ptr %9, align 4
  br label %108

41:                                               ; preds = %28
  %42 = load ptr, ptr %10, align 8
  %43 = load i32, ptr %11, align 4
  %44 = load ptr, ptr %12, align 8
  %45 = load ptr, ptr %13, align 8
  %46 = load ptr, ptr %15, align 8
  %47 = load i32, ptr @hf_pn_io_number_of_tsn_domain_queue_config_entries, align 4
  %48 = call i32 @dissect_dcerpc_uint16(ptr noundef %42, i32 noundef %43, ptr noundef %44, ptr noundef %45, ptr noundef %46, i32 noundef %47, ptr noundef %18)
  store i32 %48, ptr %11, align 4
  br label %49

49:                                               ; preds = %53, %41
  %50 = load i16, ptr %18, align 2
  %51 = zext i16 %50 to i32
  %52 = icmp sgt i32 %51, 0
  br i1 %52, label %53, label %106

53:                                               ; preds = %49
  %54 = load i16, ptr %18, align 2
  %55 = add i16 %54, -1
  store i16 %55, ptr %18, align 2
  %56 = load ptr, ptr %13, align 8
  %57 = load i32, ptr @hf_pn_io_tsn_domain_queue_config, align 4
  %58 = load ptr, ptr %10, align 8
  %59 = load i32, ptr %11, align 4
  %60 = call ptr @proto_tree_add_item(ptr noundef %56, i32 noundef %57, ptr noundef %58, i32 noundef %59, i32 noundef 8, i32 noundef 0)
  store ptr %60, ptr %19, align 8
  %61 = load ptr, ptr %19, align 8
  %62 = load i32, ptr @ett_pn_io_tsn_domain_queue_config, align 4
  %63 = call ptr @proto_item_add_subtree(ptr noundef %61, i32 noundef %62)
  store ptr %63, ptr %20, align 8
  %64 = load ptr, ptr %10, align 8
  %65 = load i32, ptr %11, align 4
  %66 = load ptr, ptr %12, align 8
  %67 = load ptr, ptr %20, align 8
  %68 = load ptr, ptr %15, align 8
  %69 = load i32, ptr @hf_pn_io_tsn_domain_queue_config_mask_time_offset, align 4
  %70 = call i32 @dissect_dcerpc_uint64(ptr noundef %64, i32 noundef %65, ptr noundef %66, ptr noundef %67, ptr noundef %22, ptr noundef %68, i32 noundef %69, ptr noundef %21)
  %71 = load ptr, ptr %10, align 8
  %72 = load i32, ptr %11, align 4
  %73 = load ptr, ptr %12, align 8
  %74 = load ptr, ptr %20, align 8
  %75 = load ptr, ptr %15, align 8
  %76 = load i32, ptr @hf_pn_io_tsn_domain_queue_config_unmask_time_offset, align 4
  %77 = call i32 @dissect_dcerpc_uint64(ptr noundef %71, i32 noundef %72, ptr noundef %73, ptr noundef %74, ptr noundef %22, ptr noundef %75, i32 noundef %76, ptr noundef %21)
  %78 = load ptr, ptr %10, align 8
  %79 = load i32, ptr %11, align 4
  %80 = load ptr, ptr %12, align 8
  %81 = load ptr, ptr %20, align 8
  %82 = load ptr, ptr %15, align 8
  %83 = load i32, ptr @hf_pn_io_tsn_domain_queue_config_preemption_mode, align 4
  %84 = call i32 @dissect_dcerpc_uint64(ptr noundef %78, i32 noundef %79, ptr noundef %80, ptr noundef %81, ptr noundef %22, ptr noundef %82, i32 noundef %83, ptr noundef %21)
  %85 = load ptr, ptr %10, align 8
  %86 = load i32, ptr %11, align 4
  %87 = load ptr, ptr %12, align 8
  %88 = load ptr, ptr %20, align 8
  %89 = load ptr, ptr %15, align 8
  %90 = load i32, ptr @hf_pn_io_tsn_domain_queue_config_shaper, align 4
  %91 = call i32 @dissect_dcerpc_uint64(ptr noundef %85, i32 noundef %86, ptr noundef %87, ptr noundef %88, ptr noundef %22, ptr noundef %89, i32 noundef %90, ptr noundef %21)
  %92 = load ptr, ptr %10, align 8
  %93 = load i32, ptr %11, align 4
  %94 = load ptr, ptr %12, align 8
  %95 = load ptr, ptr %20, align 8
  %96 = load ptr, ptr %15, align 8
  %97 = load i32, ptr @hf_pn_io_tsn_domain_queue_config_tci_pcp, align 4
  %98 = call i32 @dissect_dcerpc_uint64(ptr noundef %92, i32 noundef %93, ptr noundef %94, ptr noundef %95, ptr noundef %22, ptr noundef %96, i32 noundef %97, ptr noundef %21)
  %99 = load ptr, ptr %10, align 8
  %100 = load i32, ptr %11, align 4
  %101 = load ptr, ptr %12, align 8
  %102 = load ptr, ptr %20, align 8
  %103 = load ptr, ptr %15, align 8
  %104 = load i32, ptr @hf_pn_io_tsn_domain_queue_config_queue_id, align 4
  %105 = call i32 @dissect_dcerpc_uint64(ptr noundef %99, i32 noundef %100, ptr noundef %101, ptr noundef %102, ptr noundef %22, ptr noundef %103, i32 noundef %104, ptr noundef %21)
  store i32 %105, ptr %11, align 4
  br label %49, !llvm.loop !66

106:                                              ; preds = %49
  %107 = load i32, ptr %11, align 4
  store i32 %107, ptr %9, align 4
  br label %108

108:                                              ; preds = %106, %32
  %109 = load i32, ptr %9, align 4
  ret i32 %109
}