; Function Attrs: nounwind uwtable
define internal fastcc void @dissect_TSNDomainQueueConfig_block(ptr noundef %0, i32 noundef %1, ptr noundef %2, ptr noundef %3, ptr noundef %4, ptr noundef %5, i8 noundef zeroext %6, i8 noundef zeroext %7) unnamed_addr #0 {
  %9 = alloca i16, align 2
  %10 = alloca i64, align 8
  %11 = alloca %struct._dcerpc_info, align 8
  %12 = alloca %struct._dcerpc_call_value, align 8
  %13 = getelementptr inbounds nuw i8, ptr %11, i64 72
  store ptr %12, ptr %13, align 8
  %14 = icmp ne i8 %6, 1
  %15 = icmp ne i8 %7, 0
  %or.cond = or i1 %14, %15
  br i1 %or.cond, label %16, label %20

16:                                               ; preds = %8
  %17 = zext i8 %7 to i32
  %18 = zext i8 %6 to i32
  %19 = call ptr (ptr, ptr, ptr, ptr, ...) @expert_add_info_format(ptr noundef %2, ptr noundef %4, ptr noundef nonnull @ei_pn_io_block_version, ptr noundef nonnull @.str.1317, i32 noundef %18, i32 noundef %17) #11
  br label %.loopexit

20:                                               ; preds = %8
  %21 = load i32, ptr @hf_pn_io_number_of_tsn_domain_queue_config_entries, align 4
  %22 = call i32 @dissect_dcerpc_uint16(ptr noundef %0, i32 noundef %1, ptr noundef %2, ptr noundef %3, ptr noundef %5, i32 noundef %21, ptr noundef nonnull %9) #11
  %23 = load i16, ptr %9, align 2
  %.not50 = icmp eq i16 %23, 0
  br i1 %.not50, label %.loopexit, label %.lr.ph

.lr.ph:                                           ; preds = %20, %.lr.ph
  %24 = phi i16 [ %42, %.lr.ph ], [ %23, %20 ]
  %.04951 = phi i32 [ %41, %.lr.ph ], [ %22, %20 ]
  %25 = add i16 %24, -1
  store i16 %25, ptr %9, align 2
  %26 = load i32, ptr @hf_pn_io_tsn_domain_queue_config, align 4
  %27 = call ptr @proto_tree_add_item(ptr noundef %3, i32 noundef %26, ptr noundef %0, i32 noundef %.04951, i32 noundef 8, i32 noundef 0) #11
  %28 = load i32, ptr @ett_pn_io_tsn_domain_queue_config, align 4
  %29 = call ptr @proto_item_add_subtree(ptr noundef %27, i32 noundef %28) #11
  %30 = load i32, ptr @hf_pn_io_tsn_domain_queue_config_mask_time_offset, align 4
  %31 = call i32 @dissect_dcerpc_uint64(ptr noundef %0, i32 noundef %.04951, ptr noundef %2, ptr noundef %29, ptr noundef nonnull %11, ptr noundef %5, i32 noundef %30, ptr noundef nonnull %10) #11
  %32 = load i32, ptr @hf_pn_io_tsn_domain_queue_config_unmask_time_offset, align 4
  %33 = call i32 @dissect_dcerpc_uint64(ptr noundef %0, i32 noundef %.04951, ptr noundef %2, ptr noundef %29, ptr noundef nonnull %11, ptr noundef %5, i32 noundef %32, ptr noundef nonnull %10) #11
  %34 = load i32, ptr @hf_pn_io_tsn_domain_queue_config_preemption_mode, align 4
  %35 = call i32 @dissect_dcerpc_uint64(ptr noundef %0, i32 noundef %.04951, ptr noundef %2, ptr noundef %29, ptr noundef nonnull %11, ptr noundef %5, i32 noundef %34, ptr noundef nonnull %10) #11
  %36 = load i32, ptr @hf_pn_io_tsn_domain_queue_config_shaper, align 4
  %37 = call i32 @dissect_dcerpc_uint64(ptr noundef %0, i32 noundef %.04951, ptr noundef %2, ptr noundef %29, ptr noundef nonnull %11, ptr noundef %5, i32 noundef %36, ptr noundef nonnull %10) #11
  %38 = load i32, ptr @hf_pn_io_tsn_domain_queue_config_tci_pcp, align 4
  %39 = call i32 @dissect_dcerpc_uint64(ptr noundef %0, i32 noundef %.04951, ptr noundef %2, ptr noundef %29, ptr noundef nonnull %11, ptr noundef %5, i32 noundef %38, ptr noundef nonnull %10) #11
  %40 = load i32, ptr @hf_pn_io_tsn_domain_queue_config_queue_id, align 4
  %41 = call i32 @dissect_dcerpc_uint64(ptr noundef %0, i32 noundef %.04951, ptr noundef %2, ptr noundef %29, ptr noundef nonnull %11, ptr noundef %5, i32 noundef %40, ptr noundef nonnull %10) #11
  %42 = load i16, ptr %9, align 2
  %.not = icmp eq i16 %42, 0
  br i1 %.not, label %.loopexit, label %.lr.ph, !llvm.loop !74

.loopexit:                                        ; preds = %.lr.ph, %20, %16
  ret void
}